target datalayout = "e-m:e-p270:32:32-p271:32:32-p272:64:64-i64:64-i128:128-f80:128-n8:16:32:64-S128"
target triple = "x86_64-pc-linux-gnu"

%"class.cvc5::internal::TypeNode" = type { ptr }
%"class.cvc5::internal::expr::NodeValue" = type { i64, i64, ptr, [0 x ptr] }

; Function Attrs: inlinehint mustprogress uwtable
define linkonce_odr hidden noundef nonnull align 4 dereferenceable(4) ptr @_ZNK4cvc58internal8TypeNode8getConstINS0_12TypeConstantEEERKT_v(ptr noundef nonnull align 8 dereferenceable(8) %0) #4 comdat align 2 {
  %2 = alloca ptr, align 8
  store ptr %0, ptr %2, align 8, !tbaa !9
  %3 = load ptr, ptr %2, align 8
  %4 = getelementptr inbounds nuw %"class.cvc5::internal::TypeNode", ptr %3, i32 0, i32 0
  %5 = load ptr, ptr %4, align 8, !tbaa !11
  %6 = call noundef nonnull align 4 dereferenceable(4) ptr @_ZNK4cvc58internal4expr9NodeValue8getConstINS0_12TypeConstantEEERKT_v(ptr noundef nonnull align 8 dereferenceable(24) %5)
  ret ptr %6
}

; Function Attrs: inlinehint mustprogress nounwind uwtable
define linkonce_odr hidden noundef i32 @_ZNK4cvc58internal8TypeNode7getKindEv(ptr noundef nonnull align 8 dereferenceable(8) %0) #5 comdat align 2 {
  %2 = alloca ptr, align 8
  store ptr %0, ptr %2, align 8, !tbaa !9
  %3 = load ptr, ptr %2, align 8
  %4 = getelementptr inbounds nuw %"class.cvc5::internal::TypeNode", ptr %3, i32 0, i32 0
  %5 = load ptr, ptr %4, align 8, !tbaa !11
  %6 = getelementptr inbounds nuw %"class.cvc5::internal::expr::NodeValue", ptr %5, i32 0, i32 1
  %7 = load i64, ptr %6, align 8
  %8 = and i64 %7, 1023
  %9 = trunc i64 %8 to i32
  ret i32 %9
}

; Function Attrs: mustprogress uwtable
define noundef zeroext i1 @_ZNK4cvc58internal8TypeNode12isFirstClassEv(ptr noundef nonnull align 8 dereferenceable(8) %0) #6 align 2 {
  %2 = alloca ptr, align 8
  %3 = alloca i32, align 4
  store ptr %0, ptr %2, align 8, !tbaa !9
  %4 = load ptr, ptr %2, align 8
  call void @llvm.lifetime.start.p0(i64 4, ptr %3) #3
  %5 = call noundef i32 @_ZNK4cvc58internal8TypeNode7getKindEv(ptr noundef nonnull align 8 dereferenceable(8) %4)
  store i32 %5, ptr %3, align 4, !tbaa !31
  %6 = load i32, ptr %3, align 4, !tbaa !31
  %7 = icmp ne i32 %6, 220
  br i1 %7, label %8, label %35

8:                                                ; preds = %1
  %9 = load i32, ptr %3, align 4, !tbaa !31
  %10 = icmp ne i32 %9, 221
  br i1 %10, label %11, label %35

11:                                               ; preds = %8
  %12 = load i32, ptr %3, align 4, !tbaa !31
  %13 = icmp ne i32 %12, 222
  br i1 %13, label %14, label %35

14:                                               ; preds = %11
  %15 = load i32, ptr %3, align 4, !tbaa !31
  %16 = icmp ne i32 %15, 223
  br i1 %16, label %17, label %35

17:                                               ; preds = %14
  %18 = load i32, ptr %3, align 4, !tbaa !31
  %19 = icmp ne i32 %18, 15
  br i1 %19, label %20, label %35

20:                                               ; preds = %17
  %21 = load i32, ptr %3, align 4, !tbaa !31
  %22 = icmp ne i32 %21, 13
  br i1 %22, label %33, label %23

23:                                               ; preds = %20
  %24 = call noundef nonnull align 4 dereferenceable(4) ptr @_ZNK4cvc58internal8TypeNode8getConstINS0_12TypeConstantEEERKT_v(ptr noundef nonnull align 8 dereferenceable(8) %4)
  %25 = load i32, ptr %24, align 4, !tbaa !33
  %26 = icmp ne i32 %25, 7
  br i1 %26, label %27, label %31

27:                                               ; preds = %23
  %28 = call noundef nonnull align 4 dereferenceable(4) ptr @_ZNK4cvc58internal8TypeNode8getConstINS0_12TypeConstantEEERKT_v(ptr noundef nonnull align 8 dereferenceable(8) %4)
  %29 = load i32, ptr %28, align 4, !tbaa !33
  %30 = icmp ne i32 %29, 1
  br label %31

31:                                               ; preds = %27, %23
  %32 = phi i1 [ false, %23 ], [ %30, %27 ]
  br label %33

33:                                               ; preds = %31, %20
  %34 = phi i1 [ true, %20 ], [ %32, %31 ]
  br label %35

35:                                               ; preds = %33, %17, %14, %11, %8, %1
  %36 = phi i1 [ false, %17 ], [ false, %14 ], [ false, %11 ], [ false, %8 ], [ false, %1 ], [ %34, %33 ]
  call void @llvm.lifetime.end.p0(i64 4, ptr %3) #3
  ret i1 %36
}