; Function Attrs: mustprogress uwtable
define noundef zeroext i1 @_ZNK4cvc58internal8TypeNode12isFirstClassEv(ptr noundef nonnull readonly align 8 captures(none) dereferenceable(8) %0) local_unnamed_addr #4 align 2 {
  %2 = load ptr, ptr %0, align 8, !tbaa !3
  %3 = getelementptr inbounds nuw i8, ptr %2, i64 8
  %4 = load i64, ptr %3, align 8
  %5 = trunc i64 %4 to i32
  %6 = and i32 %5, 1023
  switch i32 %6, label %.fold.split [
    i32 223, label %15
    i32 222, label %15
    i32 221, label %15
    i32 220, label %15
    i32 15, label %15
    i32 13, label %7
  ]

7:                                                ; preds = %1
  %8 = tail call noundef nonnull align 4 dereferenceable(4) ptr @_ZNK4cvc58internal4expr9NodeValue8getConstINS0_12TypeConstantEEERKT_v(ptr noundef nonnull align 8 dereferenceable(24) %2)
  %9 = load i32, ptr %8, align 4, !tbaa !46
  %.not13 = icmp eq i32 %9, 7
  br i1 %.not13, label %15, label %10

10:                                               ; preds = %7
  %11 = load ptr, ptr %0, align 8, !tbaa !3
  %12 = tail call noundef nonnull align 4 dereferenceable(4) ptr @_ZNK4cvc58internal4expr9NodeValue8getConstINS0_12TypeConstantEEERKT_v(ptr noundef nonnull align 8 dereferenceable(24) %11)
  %13 = load i32, ptr %12, align 4, !tbaa !46
  %14 = icmp ne i32 %13, 1
  br label %15

.fold.split:                                      ; preds = %1
  br label %15

15:                                               ; preds = %1, %1, %1, %1, %1, %.fold.split, %10, %7
  %16 = phi i1 [ false, %1 ], [ false, %7 ], [ %14, %10 ], [ false, %1 ], [ false, %1 ], [ false, %1 ], [ false, %1 ], [ true, %.fold.split ]
  ret i1 %16
}